target datalayout = "e-m:e-p270:32:32-p271:32:32-p272:64:64-i64:64-i128:128-f80:128-n8:16:32:64-S128"
target triple = "x86_64-pc-linux-gnu"

%struct.ExprState = type { i32, i8, i8, i64, ptr, ptr, ptr, ptr, ptr, i32, i32, ptr, ptr, ptr, ptr, ptr, ptr, ptr }
%struct.ExprEvalStep = type { i64, ptr, ptr, %union.anon }
%union.anon = type { %struct.anon.23 }
%struct.anon.23 = type { ptr, ptr, i32, i32, ptr, ptr }
%struct.anon.0 = type { i32, i32, i32 }
%struct.ExprContext = type { i32, ptr, ptr, ptr, ptr, ptr, ptr, ptr, ptr, ptr, i64, i8, i64, i8, ptr, ptr, ptr, ptr }
%struct.TupleTableSlot = type { i32, i16, i16, ptr, ptr, ptr, ptr, ptr, %struct.ItemPointerData, i32 }
%struct.ItemPointerData = type { %struct.BlockIdData, i16 }
%struct.BlockIdData = type { i16, i16 }

; Function Attrs: inlinehint nounwind uwtable
define internal void @slot_getsomeattrs(ptr noundef %0, i32 noundef %1) #2 {
  %3 = alloca ptr, align 8
  %4 = alloca i32, align 4
  store ptr %0, ptr %3, align 8
  store i32 %1, ptr %4, align 4
  %5 = load ptr, ptr %3, align 8
  %6 = getelementptr inbounds nuw %struct.TupleTableSlot, ptr %5, i32 0, i32 2
  %7 = load i16, ptr %6, align 2
  %8 = sext i16 %7 to i32
  %9 = load i32, ptr %4, align 4
  %10 = icmp slt i32 %8, %9
  br i1 %10, label %11, label %14

11:                                               ; preds = %2
  %12 = load ptr, ptr %3, align 8
  %13 = load i32, ptr %4, align 4
  call void @slot_getsomeattrs_int(ptr noundef %12, i32 noundef %13)
  br label %14

14:                                               ; preds = %11, %2
  ret void
}

; Function Attrs: inlinehint nounwind uwtable
define internal i64 @slot_getattr(ptr noundef %0, i32 noundef %1, ptr noundef %2) #2 {
  %4 = alloca ptr, align 8
  %5 = alloca i32, align 4
  %6 = alloca ptr, align 8
  store ptr %0, ptr %4, align 8
  store i32 %1, ptr %5, align 4
  store ptr %2, ptr %6, align 8
  %7 = load i32, ptr %5, align 4
  %8 = load ptr, ptr %4, align 8
  %9 = getelementptr inbounds nuw %struct.TupleTableSlot, ptr %8, i32 0, i32 2
  %10 = load i16, ptr %9, align 2
  %11 = sext i16 %10 to i32
  %12 = icmp sgt i32 %7, %11
  br i1 %12, label %13, label %16

13:                                               ; preds = %3
  %14 = load ptr, ptr %4, align 8
  %15 = load i32, ptr %5, align 4
  call void @slot_getsomeattrs(ptr noundef %14, i32 noundef %15)
  br label %16

16:                                               ; preds = %13, %3
  %17 = load ptr, ptr %4, align 8
  %18 = getelementptr inbounds nuw %struct.TupleTableSlot, ptr %17, i32 0, i32 6
  %19 = load ptr, ptr %18, align 8
  %20 = load i32, ptr %5, align 4
  %21 = sub i32 %20, 1
  %22 = sext i32 %21 to i64
  %23 = getelementptr inbounds i8, ptr %19, i64 %22
  %24 = load i8, ptr %23, align 1, !range !7, !noundef !8
  %25 = trunc i8 %24 to i1
  %26 = load ptr, ptr %6, align 8
  %27 = zext i1 %25 to i8
  store i8 %27, ptr %26, align 1
  %28 = load ptr, ptr %4, align 8
  %29 = getelementptr inbounds nuw %struct.TupleTableSlot, ptr %28, i32 0, i32 5
  %30 = load ptr, ptr %29, align 8
  %31 = load i32, ptr %5, align 4
  %32 = sub i32 %31, 1
  %33 = sext i32 %32 to i64
  %34 = getelementptr inbounds i64, ptr %30, i64 %33
  %35 = load i64, ptr %34, align 8
  ret i64 %35
}

; Function Attrs: nounwind uwtable
define internal void @CheckOpSlotCompatibility(ptr noundef %0, ptr noundef %1) #0 {
  %3 = alloca ptr, align 8
  %4 = alloca ptr, align 8
  store ptr %0, ptr %3, align 8
  store ptr %1, ptr %4, align 8
  ret void
}

; Function Attrs: alwaysinline nounwind uwtable
define internal i64 @ExecJustVarImpl(ptr noundef %0, ptr noundef %1, ptr noundef %2) #9 {
  %4 = alloca ptr, align 8
  %5 = alloca ptr, align 8
  %6 = alloca ptr, align 8
  %7 = alloca ptr, align 8
  %8 = alloca i32, align 4
  store ptr %0, ptr %4, align 8
  store ptr %1, ptr %5, align 8
  store ptr %2, ptr %6, align 8
  call void @llvm.lifetime.start.p0(i64 8, ptr %7) #11
  %9 = load ptr, ptr %4, align 8
  %10 = getelementptr inbounds nuw %struct.ExprState, ptr %9, i32 0, i32 5
  %11 = load ptr, ptr %10, align 8
  %12 = getelementptr inbounds %struct.ExprEvalStep, ptr %11, i64 1
  store ptr %12, ptr %7, align 8
  call void @llvm.lifetime.start.p0(i64 4, ptr %8) #11
  %13 = load ptr, ptr %7, align 8
  %14 = getelementptr inbounds nuw %struct.ExprEvalStep, ptr %13, i32 0, i32 3
  %15 = getelementptr inbounds nuw %struct.anon.0, ptr %14, i32 0, i32 0
  %16 = load i32, ptr %15, align 8
  %17 = add i32 %16, 1
  store i32 %17, ptr %8, align 4
  %18 = load ptr, ptr %4, align 8
  %19 = getelementptr inbounds nuw %struct.ExprState, ptr %18, i32 0, i32 5
  %20 = load ptr, ptr %19, align 8
  %21 = getelementptr inbounds %struct.ExprEvalStep, ptr %20, i64 0
  %22 = load ptr, ptr %5, align 8
  call void @CheckOpSlotCompatibility(ptr noundef %21, ptr noundef %22)
  %23 = load ptr, ptr %5, align 8
  %24 = load i32, ptr %8, align 4
  %25 = load ptr, ptr %6, align 8
  %26 = call i64 @slot_getattr(ptr noundef %23, i32 noundef %24, ptr noundef %25)
  call void @llvm.lifetime.end.p0(i64 4, ptr %8) #11
  call void @llvm.lifetime.end.p0(i64 8, ptr %7) #11
  ret i64 %26
}

; Function Attrs: nounwind uwtable
define internal i64 @ExecJustScanVar(ptr noundef %0, ptr noundef %1, ptr noundef %2) #0 {
  %4 = alloca ptr, align 8
  %5 = alloca ptr, align 8
  %6 = alloca ptr, align 8
  store ptr %0, ptr %4, align 8
  store ptr %1, ptr %5, align 8
  store ptr %2, ptr %6, align 8
  %7 = load ptr, ptr %4, align 8
  %8 = load ptr, ptr %5, align 8
  %9 = getelementptr inbounds nuw %struct.ExprContext, ptr %8, i32 0, i32 1
  %10 = load ptr, ptr %9, align 8
  %11 = load ptr, ptr %6, align 8
  %12 = call i64 @ExecJustVarImpl(ptr noundef %7, ptr noundef %10, ptr noundef %11)
  ret i64 %12
}