; Function Attrs: nounwind uwtable
define internal i64 @ExecJustScanVar(ptr noundef readonly captures(none) %0, ptr noundef readonly captures(none) %1, ptr noundef writeonly captures(none) initializes((0, 1)) %2) #0 {
  %4 = getelementptr inbounds nuw i8, ptr %1, i64 8
  %5 = load ptr, ptr %4, align 8
  %6 = getelementptr inbounds nuw i8, ptr %0, i64 24
  %7 = load ptr, ptr %6, align 8
  %8 = getelementptr inbounds nuw i8, ptr %7, i64 88
  %9 = load i32, ptr %8, align 8
  %10 = add i32 %9, 1
  %11 = getelementptr inbounds nuw i8, ptr %5, i64 6
  %12 = load i16, ptr %11, align 2
  %13 = sext i16 %12 to i32
  %14 = icmp sgt i32 %10, %13
  br i1 %14, label %slot_getsomeattrs.exit.i, label %slot_getattr.exit

slot_getsomeattrs.exit.i:                         ; preds = %3
  tail call void @slot_getsomeattrs_int(ptr noundef nonnull %5, i32 noundef %10) #18
  br label %slot_getattr.exit

slot_getattr.exit:                                ; preds = %3, %slot_getsomeattrs.exit.i
  %15 = getelementptr inbounds nuw i8, ptr %5, i64 32
  %16 = load ptr, ptr %15, align 8
  %17 = sext i32 %9 to i64
  %18 = getelementptr inbounds i8, ptr %16, i64 %17
  %19 = load i8, ptr %18, align 1, !range !8, !noundef !9
  store i8 %19, ptr %2, align 1
  %20 = getelementptr inbounds nuw i8, ptr %5, i64 24
  %21 = load ptr, ptr %20, align 8
  %22 = getelementptr inbounds i64, ptr %21, i64 %17
  %23 = load i64, ptr %22, align 8
  ret i64 %23
}